target datalayout = "e-m:e-p270:32:32-p271:32:32-p272:64:64-i64:64-i128:128-f80:128-n8:16:32:64-S128"
target triple = "x86_64-pc-linux-gnu"

%struct.Vec_Int_t_ = type { i32, i32, ptr }
%struct.Abc_Obj_t_ = type { ptr, ptr, i32, i32, %struct.Vec_Int_t_, %struct.Vec_Int_t_, %union.anon, %union.anon.0 }
%union.anon = type { ptr }
%union.anon.0 = type { ptr }
%struct.Vec_Ptr_t_ = type { i32, i32, ptr }

; Function Attrs: nounwind uwtable
define internal ptr @Abc_ObjRegular(ptr noundef %0) #0 {
  %2 = alloca ptr, align 8
  store ptr %0, ptr %2, align 8
  %3 = load ptr, ptr %2, align 8
  %4 = ptrtoint ptr %3 to i64
  %5 = and i64 %4, -2
  %6 = inttoptr i64 %5 to ptr
  ret ptr %6
}

; Function Attrs: nounwind uwtable
define internal void @Vec_PtrClear(ptr noundef %0) #0 {
  %2 = alloca ptr, align 8
  store ptr %0, ptr %2, align 8
  %3 = load ptr, ptr %2, align 8
  %4 = getelementptr inbounds %struct.Vec_Ptr_t_, ptr %3, i32 0, i32 1
  store i32 0, ptr %4, align 4
  ret void
}

; Function Attrs: nounwind uwtable
define void @Abc_NtkCollectSupergate(ptr noundef %0, i32 noundef %1, ptr noundef %2) #0 {
  %4 = alloca ptr, align 8
  %5 = alloca i32, align 4
  %6 = alloca ptr, align 8
  %7 = alloca i32, align 4
  %8 = alloca i32, align 4
  store ptr %0, ptr %4, align 8
  store i32 %1, ptr %5, align 4
  store ptr %2, ptr %6, align 8
  %9 = load ptr, ptr %6, align 8
  call void @Vec_PtrClear(ptr noundef %9)
  %10 = load ptr, ptr %4, align 8
  %11 = load ptr, ptr %6, align 8
  %12 = load i32, ptr %5, align 4
  %13 = call i32 @Abc_NtkCollectSupergate_rec(ptr noundef %10, ptr noundef %11, i32 noundef 1, i32 noundef %12)
  store i32 %13, ptr %7, align 4
  store i32 0, ptr %8, align 4
  br label %14

14:                                               ; preds = %33, %3
  %15 = load i32, ptr %8, align 4
  %16 = load ptr, ptr %6, align 8
  %17 = getelementptr inbounds %struct.Vec_Ptr_t_, ptr %16, i32 0, i32 1
  %18 = load i32, ptr %17, align 4
  %19 = icmp slt i32 %15, %18
  br i1 %19, label %20, label %36

20:                                               ; preds = %14
  %21 = load ptr, ptr %6, align 8
  %22 = getelementptr inbounds %struct.Vec_Ptr_t_, ptr %21, i32 0, i32 2
  %23 = load ptr, ptr %22, align 8
  %24 = load i32, ptr %8, align 4
  %25 = sext i32 %24 to i64
  %26 = getelementptr inbounds ptr, ptr %23, i64 %25
  %27 = load ptr, ptr %26, align 8
  %28 = call ptr @Abc_ObjRegular(ptr noundef %27)
  %29 = getelementptr inbounds %struct.Abc_Obj_t_, ptr %28, i32 0, i32 3
  %30 = load i32, ptr %29, align 4
  %31 = and i32 %30, -33
  %32 = or i32 %31, 0
  store i32 %32, ptr %29, align 4
  br label %33

33:                                               ; preds = %20
  %34 = load i32, ptr %8, align 4
  %35 = add nsw i32 %34, 1
  store i32 %35, ptr %8, align 4
  br label %14, !llvm.loop !12

36:                                               ; preds = %14
  %37 = load i32, ptr %7, align 4
  %38 = icmp eq i32 %37, -1
  br i1 %38, label %39, label %42

39:                                               ; preds = %36
  %40 = load ptr, ptr %6, align 8
  %41 = getelementptr inbounds %struct.Vec_Ptr_t_, ptr %40, i32 0, i32 1
  store i32 0, ptr %41, align 4
  br label %42

42:                                               ; preds = %39, %36
  ret void
}