; Function Attrs: nounwind uwtable
define void @Abc_NtkCollectSupergate(ptr noundef %0, i32 noundef %1, ptr noundef initializes((4, 8)) %2) local_unnamed_addr #0 {
  %4 = getelementptr inbounds nuw i8, ptr %2, i64 4
  store i32 0, ptr %4, align 4
  %5 = tail call i32 @Abc_NtkCollectSupergate_rec(ptr noundef %0, ptr noundef %2, i32 noundef 1, i32 noundef %1)
  %6 = load i32, ptr %4, align 4
  %7 = icmp sgt i32 %6, 0
  br i1 %7, label %.lr.ph, label %._crit_edge

.lr.ph:                                           ; preds = %3
  %8 = getelementptr inbounds nuw i8, ptr %2, i64 8
  br label %9

9:                                                ; preds = %.lr.ph, %9
  %indvars.iv = phi i64 [ 0, %.lr.ph ], [ %indvars.iv.next, %9 ]
  %10 = load ptr, ptr %8, align 8
  %11 = getelementptr inbounds nuw ptr, ptr %10, i64 %indvars.iv
  %12 = load ptr, ptr %11, align 8
  %13 = ptrtoint ptr %12 to i64
  %14 = and i64 %13, -2
  %15 = inttoptr i64 %14 to ptr
  %16 = getelementptr inbounds nuw i8, ptr %15, i64 20
  %17 = load i32, ptr %16, align 4
  %18 = and i32 %17, -33
  store i32 %18, ptr %16, align 4
  %indvars.iv.next = add nuw nsw i64 %indvars.iv, 1
  %19 = load i32, ptr %4, align 4
  %20 = sext i32 %19 to i64
  %21 = icmp slt i64 %indvars.iv.next, %20
  br i1 %21, label %9, label %._crit_edge, !llvm.loop !15

._crit_edge:                                      ; preds = %9, %3
  %22 = icmp eq i32 %5, -1
  br i1 %22, label %23, label %24

23:                                               ; preds = %._crit_edge
  store i32 0, ptr %4, align 4
  br label %24

24:                                               ; preds = %23, %._crit_edge
  ret void
}